; Function Attrs: null_pointer_is_valid sspstrong uwtable
define internal range(i32 0, 2) i32 @sm_fragment_equal(ptr noundef readonly captures(address_is_null) %0, ptr noundef readonly captures(address_is_null) %1) #0 {
  %3 = icmp ne ptr %0, null
  %4 = icmp ne ptr %1, null
  %or.cond = and i1 %3, %4
  br i1 %or.cond, label %5, label %addresses_equal.exit

5:                                                ; preds = %2
  %6 = getelementptr inbounds nuw i8, ptr %0, i64 64
  %7 = load i32, ptr %6, align 8
  %8 = getelementptr inbounds nuw i8, ptr %1, i64 64
  %9 = load i32, ptr %8, align 8
  %10 = icmp eq i32 %7, %9
  br i1 %10, label %11, label %addresses_equal.exit

11:                                               ; preds = %5
  %12 = getelementptr inbounds nuw i8, ptr %0, i64 8
  %13 = load i32, ptr %12, align 8
  %14 = getelementptr inbounds nuw i8, ptr %1, i64 8
  %15 = load i32, ptr %14, align 8
  %16 = icmp eq i32 %13, %15
  br i1 %16, label %17, label %addresses_equal.exit

17:                                               ; preds = %11
  %18 = load ptr, ptr %0, align 8
  %19 = load ptr, ptr %1, align 8
  %20 = tail call i32 @g_strcmp0(ptr noundef %18, ptr noundef %19)
  %.not = icmp eq i32 %20, 0
  br i1 %.not, label %21, label %addresses_equal.exit

21:                                               ; preds = %17
  %22 = getelementptr inbounds nuw i8, ptr %0, i64 16
  %23 = getelementptr inbounds nuw i8, ptr %1, i64 16
  %24 = load i32, ptr %22, align 8
  %25 = load i32, ptr %23, align 8
  %26 = icmp eq i32 %24, %25
  br i1 %26, label %27, label %addresses_equal.exit

27:                                               ; preds = %21
  %28 = getelementptr inbounds nuw i8, ptr %0, i64 20
  %29 = load i32, ptr %28, align 4
  %30 = getelementptr inbounds nuw i8, ptr %1, i64 20
  %31 = load i32, ptr %30, align 4
  %32 = icmp eq i32 %29, %31
  br i1 %32, label %33, label %addresses_equal.exit

33:                                               ; preds = %27
  %34 = icmp eq i32 %29, 0
  br i1 %34, label %42, label %35

35:                                               ; preds = %33
  %36 = getelementptr inbounds nuw i8, ptr %0, i64 24
  %37 = load ptr, ptr %36, align 8
  %38 = getelementptr inbounds nuw i8, ptr %1, i64 24
  %39 = load ptr, ptr %38, align 8
  %40 = sext i32 %29 to i64
  %bcmp.i = tail call i32 @bcmp(ptr %37, ptr %39, i64 %40)
  %41 = icmp eq i32 %bcmp.i, 0
  br i1 %41, label %42, label %addresses_equal.exit

42:                                               ; preds = %35, %33
  %43 = getelementptr inbounds nuw i8, ptr %0, i64 40
  %44 = getelementptr inbounds nuw i8, ptr %1, i64 40
  %45 = load i32, ptr %43, align 8
  %46 = load i32, ptr %44, align 8
  %47 = icmp eq i32 %45, %46
  br i1 %47, label %48, label %63

48:                                               ; preds = %42
  %49 = getelementptr inbounds nuw i8, ptr %0, i64 44
  %50 = load i32, ptr %49, align 4
  %51 = getelementptr inbounds nuw i8, ptr %1, i64 44
  %52 = load i32, ptr %51, align 4
  %53 = icmp eq i32 %50, %52
  br i1 %53, label %54, label %63

54:                                               ; preds = %48
  %55 = icmp eq i32 %50, 0
  br i1 %55, label %addresses_equal.exit, label %56

56:                                               ; preds = %54
  %57 = getelementptr inbounds nuw i8, ptr %0, i64 48
  %58 = load ptr, ptr %57, align 8
  %59 = getelementptr inbounds nuw i8, ptr %1, i64 48
  %60 = load ptr, ptr %59, align 8
  %61 = sext i32 %50 to i64
  %bcmp.i18 = tail call i32 @bcmp(ptr %58, ptr %60, i64 %61)
  %62 = icmp eq i32 %bcmp.i18, 0
  br i1 %62, label %addresses_equal.exit, label %63

63:                                               ; preds = %56, %48, %42
  br label %addresses_equal.exit

addresses_equal.exit:                             ; preds = %63, %56, %54, %35, %27, %21, %5, %11, %17, %2
  %.0 = phi i32 [ 0, %2 ], [ 0, %17 ], [ 0, %11 ], [ 0, %5 ], [ 0, %21 ], [ 0, %27 ], [ 0, %35 ], [ 0, %63 ], [ 1, %56 ], [ 1, %54 ]
  ret i32 %.0
}